; ModuleID = '17/1040.c'
source_filename = "17/1040.c"
target datalayout = "e-m:e-p270:32:32-p271:32:32-p272:64:64-i64:64-f80:128-n8:16:32:64-S128"
target triple = "x86_64-pc-linux-gnu"

@.str = private unnamed_addr constant [4 x i8] c"%d\0A\00", align 1
@.str.1 = private unnamed_addr constant [2 x i8] c"$\00", align 1
@.str.2 = private unnamed_addr constant [2 x i8] c"?\00", align 1
@.str.3 = private unnamed_addr constant [2 x i8] c" \00", align 1
@.str.4 = private unnamed_addr constant [2 x i8] c"\0A\00", align 1

; Function Attrs: noinline nounwind uwtable
define dso_local i32 @main() #0 {
  %1 = alloca i32, align 4
  %2 = alloca i32, align 4
  %3 = alloca i32, align 4
  %4 = alloca [104 x i8], align 16
  %5 = alloca i8, align 1
  %6 = alloca i32, align 4
  %7 = alloca i32, align 4
  store i32 0, i32* %1, align 4
  %8 = call i32 (i8*, ...) @__isoc99_scanf(i8* getelementptr inbounds ([4 x i8], [4 x i8]* @.str, i64 0, i64 0), i32* %2)
  br label %9

9:                                                ; preds = %91, %0
  %10 = load i32, i32* %2, align 4
  %11 = icmp sgt i32 %10, 0
  br i1 %11, label %12, label %95

12:                                               ; preds = %9
  store i8 0, i8* %5, align 1
  store i32 0, i32* %6, align 4
  %13 = getelementptr inbounds [104 x i8], [104 x i8]* %4, i64 0, i64 0
  %14 = call i32 (i8*, ...) bitcast (i32 (...)* @gets to i32 (i8*, ...)*)(i8* %13)
  %15 = getelementptr inbounds [104 x i8], [104 x i8]* %4, i64 0, i64 0
  %16 = call i32 @puts(i8* %15)
  %17 = getelementptr inbounds [104 x i8], [104 x i8]* %4, i64 0, i64 0
  %18 = call i64 @strlen(i8* %17) #3
  %19 = trunc i64 %18 to i32
  store i32 %19, i32* %6, align 4
  %20 = load i32, i32* %6, align 4
  %21 = sub nsw i32 %20, 1
  store i32 %21, i32* %3, align 4
  br label %22

22:                                               ; preds = %58, %12
  %23 = load i32, i32* %3, align 4
  %24 = icmp sge i32 %23, 0
  br i1 %24, label %25, label %61

25:                                               ; preds = %22
  %26 = load i32, i32* %3, align 4
  %27 = sext i32 %26 to i64
  %28 = getelementptr inbounds [104 x i8], [104 x i8]* %4, i64 0, i64 %27
  %29 = load i8, i8* %28, align 1
  %30 = sext i8 %29 to i32
  %31 = icmp eq i32 %30, 40
  br i1 %31, label %32, label %57

32:                                               ; preds = %25
  %33 = load i32, i32* %3, align 4
  store i32 %33, i32* %7, align 4
  br label %34

34:                                               ; preds = %53, %32
  %35 = load i32, i32* %7, align 4
  %36 = load i32, i32* %6, align 4
  %37 = icmp slt i32 %35, %36
  br i1 %37, label %38, label %56

38:                                               ; preds = %34
  %39 = load i32, i32* %7, align 4
  %40 = sext i32 %39 to i64
  %41 = getelementptr inbounds [104 x i8], [104 x i8]* %4, i64 0, i64 %40
  %42 = load i8, i8* %41, align 1
  %43 = sext i8 %42 to i32
  %44 = icmp eq i32 %43, 41
  br i1 %44, label %45, label %52

45:                                               ; preds = %38
  %46 = load i32, i32* %3, align 4
  %47 = sext i32 %46 to i64
  %48 = getelementptr inbounds [104 x i8], [104 x i8]* %4, i64 0, i64 %47
  store i8 32, i8* %48, align 1
  %49 = load i32, i32* %7, align 4
  %50 = sext i32 %49 to i64
  %51 = getelementptr inbounds [104 x i8], [104 x i8]* %4, i64 0, i64 %50
  store i8 32, i8* %51, align 1
  br label %56

52:                                               ; preds = %38
  br label %53

53:                                               ; preds = %52
  %54 = load i32, i32* %7, align 4
  %55 = add nsw i32 %54, 1
  store i32 %55, i32* %7, align 4
  br label %34

56:                                               ; preds = %45, %34
  br label %57

57:                                               ; preds = %56, %25
  br label %58

58:                                               ; preds = %57
  %59 = load i32, i32* %3, align 4
  %60 = add nsw i32 %59, -1
  store i32 %60, i32* %3, align 4
  br label %22

61:                                               ; preds = %22
  store i32 0, i32* %3, align 4
  br label %62

62:                                               ; preds = %88, %61
  %63 = load i32, i32* %3, align 4
  %64 = load i32, i32* %6, align 4
  %65 = icmp slt i32 %63, %64
  br i1 %65, label %66, label %91

66:                                               ; preds = %62
  %67 = load i32, i32* %3, align 4
  %68 = sext i32 %67 to i64
  %69 = getelementptr inbounds [104 x i8], [104 x i8]* %4, i64 0, i64 %68
  %70 = load i8, i8* %69, align 1
  %71 = sext i8 %70 to i32
  %72 = icmp eq i32 %71, 40
  br i1 %72, label %73, label %75

73:                                               ; preds = %66
  %74 = call i32 (i8*, ...) @printf(i8* getelementptr inbounds ([2 x i8], [2 x i8]* @.str.1, i64 0, i64 0))
  br label %87

75:                                               ; preds = %66
  %76 = load i32, i32* %3, align 4
  %77 = sext i32 %76 to i64
  %78 = getelementptr inbounds [104 x i8], [104 x i8]* %4, i64 0, i64 %77
  %79 = load i8, i8* %78, align 1
  %80 = sext i8 %79 to i32
  %81 = icmp eq i32 %80, 41
  br i1 %81, label %82, label %84

82:                                               ; preds = %75
  %83 = call i32 (i8*, ...) @printf(i8* getelementptr inbounds ([2 x i8], [2 x i8]* @.str.2, i64 0, i64 0))
  br label %86

84:                                               ; preds = %75
  %85 = call i32 (i8*, ...) @printf(i8* getelementptr inbounds ([2 x i8], [2 x i8]* @.str.3, i64 0, i64 0))
  br label %86

86:                                               ; preds = %84, %82
  br label %87

87:                                               ; preds = %86, %73
  br label %88

88:                                               ; preds = %87
  %89 = load i32, i32* %3, align 4
  %90 = add nsw i32 %89, 1
  store i32 %90, i32* %3, align 4
  br label %62

91:                                               ; preds = %62
  %92 = call i32 (i8*, ...) @printf(i8* getelementptr inbounds ([2 x i8], [2 x i8]* @.str.4, i64 0, i64 0))
  %93 = load i32, i32* %2, align 4
  %94 = add nsw i32 %93, -1
  store i32 %94, i32* %2, align 4
  br label %9

95:                                               ; preds = %9
  %96 = load i32, i32* %1, align 4
  ret i32 %96
}

declare dso_local i32 @__isoc99_scanf(i8*, ...) #1

declare dso_local i32 @gets(...) #1

declare dso_local i32 @puts(i8*) #1

; Function Attrs: nounwind readonly
declare dso_local i64 @strlen(i8*) #2

declare dso_local i32 @printf(i8*, ...) #1


!llvm.module.flags = !{!0}
!llvm.ident = !{!1}

!0 = !{i32 1, !"wchar_size", i32 4}
!1 = !{!"clang version 10.0.0-4ubuntu1 "}
